target datalayout = "e-m:e-p270:32:32-p271:32:32-p272:64:64-i64:64-i128:128-f80:128-n8:16:32:64-S128"
target triple = "x86_64-pc-linux-gnu"

%struct.CVodeMemRec = type { double, ptr, ptr, i32, i32, i32, double, double, ptr, i32, ptr, ptr, i32, ptr, i32, i32, double, double, ptr, i32, i32, i32, ptr, ptr, ptr, i32, i32, ptr, ptr, ptr, i32, double, i32, i32, double, ptr, ptr, i32, ptr, ptr, i32, i32, i32, double, ptr, ptr, [13 x ptr], ptr, ptr, ptr, ptr, ptr, [13 x ptr], ptr, ptr, ptr, ptr, [13 x ptr], ptr, ptr, ptr, ptr, ptr, i32, [13 x ptr], ptr, ptr, ptr, ptr, ptr, i32, double, i32, i32, i32, i32, i32, double, double, double, double, double, double, double, double, [14 x double], [6 x double], [13 x double], double, double, double, double, double, double, double, double, double, double, double, i32, ptr, i32, i64, i32, i32, i32, i32, i32, double, double, double, i64, i64, i64, i64, i64, i64, i64, i64, i64, ptr, i64, i64, ptr, i64, i64, i64, i64, i64, i64, i32, i64, i64, i64, i64, i64, i64, double, double, double, ptr, ptr, ptr, ptr, ptr, i32, i32, i64, double, double, double, i32, double, i32, i32, i32, i32, i32, i32, i32, i32, i32, i32, i32, i32, i32, i32, i32, i32, ptr, ptr, ptr, i32, [6 x [4 x double]], i32, i64, ptr, i32, ptr, ptr, double, double, double, ptr, ptr, ptr, double, double, i32, i32, i64, ptr, i32, i32, ptr, i32 }

; Function Attrs: nounwind uwtable
define i32 @cvSensRhsWrapper(ptr noundef %0, double noundef %1, ptr noundef %2, ptr noundef %3, ptr noundef %4, ptr noundef %5, ptr noundef %6, ptr noundef %7) #0 {
  %9 = alloca ptr, align 8
  %10 = alloca double, align 8
  %11 = alloca ptr, align 8
  %12 = alloca ptr, align 8
  %13 = alloca ptr, align 8
  %14 = alloca ptr, align 8
  %15 = alloca ptr, align 8
  %16 = alloca ptr, align 8
  %17 = alloca i32, align 4
  %18 = alloca i32, align 4
  store ptr %0, ptr %9, align 8, !tbaa !7
  store double %1, ptr %10, align 8, !tbaa !102
  store ptr %2, ptr %11, align 8, !tbaa !103
  store ptr %3, ptr %12, align 8, !tbaa !103
  store ptr %4, ptr %13, align 8, !tbaa !104
  store ptr %5, ptr %14, align 8, !tbaa !104
  store ptr %6, ptr %15, align 8, !tbaa !103
  store ptr %7, ptr %16, align 8, !tbaa !103
  call void @llvm.lifetime.start.p0(i64 4, ptr %17) #8
  store i32 0, ptr %17, align 4, !tbaa !3
  call void @llvm.lifetime.start.p0(i64 4, ptr %18) #8
  %19 = load ptr, ptr %9, align 8, !tbaa !7
  %20 = getelementptr inbounds nuw %struct.CVodeMemRec, ptr %19, i32 0, i32 26
  %21 = load i32, ptr %20, align 4, !tbaa !63
  %22 = icmp eq i32 %21, 2
  br i1 %22, label %23, label %45

23:                                               ; preds = %8
  %24 = load ptr, ptr %9, align 8, !tbaa !7
  %25 = getelementptr inbounds nuw %struct.CVodeMemRec, ptr %24, i32 0, i32 22
  %26 = load ptr, ptr %25, align 8, !tbaa !60
  %27 = load ptr, ptr %9, align 8, !tbaa !7
  %28 = getelementptr inbounds nuw %struct.CVodeMemRec, ptr %27, i32 0, i32 20
  %29 = load i32, ptr %28, align 4, !tbaa !184
  %30 = load double, ptr %10, align 8, !tbaa !102
  %31 = load ptr, ptr %11, align 8, !tbaa !103
  %32 = load ptr, ptr %12, align 8, !tbaa !103
  %33 = load ptr, ptr %13, align 8, !tbaa !104
  %34 = load ptr, ptr %14, align 8, !tbaa !104
  %35 = load ptr, ptr %9, align 8, !tbaa !7
  %36 = getelementptr inbounds nuw %struct.CVodeMemRec, ptr %35, i32 0, i32 24
  %37 = load ptr, ptr %36, align 8, !tbaa !59
  %38 = load ptr, ptr %15, align 8, !tbaa !103
  %39 = load ptr, ptr %16, align 8, !tbaa !103
  %40 = call i32 %26(i32 noundef %29, double noundef %30, ptr noundef %31, ptr noundef %32, ptr noundef %33, ptr noundef %34, ptr noundef %37, ptr noundef %38, ptr noundef %39)
  store i32 %40, ptr %17, align 4, !tbaa !3
  %41 = load ptr, ptr %9, align 8, !tbaa !7
  %42 = getelementptr inbounds nuw %struct.CVodeMemRec, ptr %41, i32 0, i32 114
  %43 = load i64, ptr %42, align 8, !tbaa !188
  %44 = add nsw i64 %43, 1
  store i64 %44, ptr %42, align 8, !tbaa !188
  br label %91

45:                                               ; preds = %8
  store i32 0, ptr %18, align 4, !tbaa !3
  br label %46

46:                                               ; preds = %87, %45
  %47 = load i32, ptr %18, align 4, !tbaa !3
  %48 = load ptr, ptr %9, align 8, !tbaa !7
  %49 = getelementptr inbounds nuw %struct.CVodeMemRec, ptr %48, i32 0, i32 20
  %50 = load i32, ptr %49, align 4, !tbaa !184
  %51 = icmp slt i32 %47, %50
  br i1 %51, label %52, label %90

52:                                               ; preds = %46
  %53 = load ptr, ptr %9, align 8, !tbaa !7
  %54 = getelementptr inbounds nuw %struct.CVodeMemRec, ptr %53, i32 0, i32 23
  %55 = load ptr, ptr %54, align 8, !tbaa !61
  %56 = load ptr, ptr %9, align 8, !tbaa !7
  %57 = getelementptr inbounds nuw %struct.CVodeMemRec, ptr %56, i32 0, i32 20
  %58 = load i32, ptr %57, align 4, !tbaa !184
  %59 = load double, ptr %10, align 8, !tbaa !102
  %60 = load ptr, ptr %11, align 8, !tbaa !103
  %61 = load ptr, ptr %12, align 8, !tbaa !103
  %62 = load i32, ptr %18, align 4, !tbaa !3
  %63 = load ptr, ptr %13, align 8, !tbaa !104
  %64 = load i32, ptr %18, align 4, !tbaa !3
  %65 = sext i32 %64 to i64
  %66 = getelementptr inbounds ptr, ptr %63, i64 %65
  %67 = load ptr, ptr %66, align 8, !tbaa !103
  %68 = load ptr, ptr %14, align 8, !tbaa !104
  %69 = load i32, ptr %18, align 4, !tbaa !3
  %70 = sext i32 %69 to i64
  %71 = getelementptr inbounds ptr, ptr %68, i64 %70
  %72 = load ptr, ptr %71, align 8, !tbaa !103
  %73 = load ptr, ptr %9, align 8, !tbaa !7
  %74 = getelementptr inbounds nuw %struct.CVodeMemRec, ptr %73, i32 0, i32 24
  %75 = load ptr, ptr %74, align 8, !tbaa !59
  %76 = load ptr, ptr %15, align 8, !tbaa !103
  %77 = load ptr, ptr %16, align 8, !tbaa !103
  %78 = call i32 %55(i32 noundef %58, double noundef %59, ptr noundef %60, ptr noundef %61, i32 noundef %62, ptr noundef %67, ptr noundef %72, ptr noundef %75, ptr noundef %76, ptr noundef %77)
  store i32 %78, ptr %17, align 4, !tbaa !3
  %79 = load ptr, ptr %9, align 8, !tbaa !7
  %80 = getelementptr inbounds nuw %struct.CVodeMemRec, ptr %79, i32 0, i32 114
  %81 = load i64, ptr %80, align 8, !tbaa !188
  %82 = add nsw i64 %81, 1
  store i64 %82, ptr %80, align 8, !tbaa !188
  %83 = load i32, ptr %17, align 4, !tbaa !3
  %84 = icmp ne i32 %83, 0
  br i1 %84, label %85, label %86

85:                                               ; preds = %52
  br label %90

86:                                               ; preds = %52
  br label %87

87:                                               ; preds = %86
  %88 = load i32, ptr %18, align 4, !tbaa !3
  %89 = add nsw i32 %88, 1
  store i32 %89, ptr %18, align 4, !tbaa !3
  br label %46, !llvm.loop !254

90:                                               ; preds = %85, %46
  br label %91

91:                                               ; preds = %90, %23
  %92 = load i32, ptr %17, align 4, !tbaa !3
  call void @llvm.lifetime.end.p0(i64 4, ptr %18) #8
  call void @llvm.lifetime.end.p0(i64 4, ptr %17) #8
  ret i32 %92
}